Certificate:
    Data:
        Version: 3 (0x2)
        Serial Number: 2 (0x2)
        Signature Algorithm: sha1WithRSAEncryption
        Issuer: CN=xCAT CA
        Validity
            Not Before: Jun 21 17:16:41 2012 GMT
            Not After : Jun 16 17:16:41 2032 GMT
        Subject: CN=root
        Subject Public Key Info:
            Public Key Algorithm: rsaEncryption
                Public-Key: (2048 bit)
                Modulus:
                    00:da:fb:01:8f:3b:41:b3:ec:e8:5c:3f:53:42:c6:
                    fb:52:60:c1:f4:15:f8:12:4a:98:93:29:5d:cd:cc:
                    bd:f7:f8:42:43:14:32:ff:8a:b9:9c:b9:bf:88:a6:
                    ab:1f:07:68:3f:25:f4:3e:b0:92:a0:cc:29:3e:e5:
                    18:b5:35:fe:97:8a:86:79:ef:3f:6b:b4:ab:98:27:
                    e9:99:cc:be:a2:bd:7c:06:2d:9b:c7:c0:57:34:af:
                    8a:3e:9f:61:0d:ba:02:ab:bc:05:af:40:5f:78:5c:
                    cb:f2:8c:7d:1b:d2:12:63:6c:d3:2f:8f:70:0b:80:
                    09:4e:18:6d:fb:d5:5f:aa:0b:73:af:c5:81:a1:e7:
                    6a:ef:9e:ab:f5:98:c5:fd:1a:22:af:87:6d:6c:a7:
                    01:75:b1:45:58:84:ed:68:12:ac:6e:8a:07:65:05:
                    9f:17:51:b5:b0:22:29:90:9c:a6:87:53:5d:a4:8d:
                    1b:30:a4:32:88:0f:2b:ea:03:a3:96:68:04:5d:27:
                    b7:03:cd:b3:fb:b9:dd:3c:ed:c6:ac:e7:e4:40:66:
                    e7:41:ef:1d:46:de:48:01:4d:86:62:b6:87:63:dc:
                    91:47:e8:b3:54:47:5b:34:8d:d0:51:01:dd:a8:12:
                    e2:c3:ce:2a:0c:4b:3f:95:c3:6f:b9:f7:27:49:6e:
                    a7:81
                Exponent: 65537 (0x10001)
        X509v3 extensions:
            X509v3 Basic Constraints: 
                CA:FALSE
            Netscape Comment: 
                OpenSSL Generated Certificate
            X509v3 Subject Key Identifier: 
                80:C3:FD:29:69:82:D0:6F:C1:41:DB:CF:76:18:4E:43:9B:17:3B:67
            X509v3 Authority Key Identifier: 
                keyid:65:A4:DF:97:73:B0:C9:21:1C:16:48:D5:2E:62:84:7D:3A:5D:64:99

    Signature Algorithm: sha1WithRSAEncryption
        01:22:b5:da:cc:cd:cc:0e:8e:23:a3:3c:31:ae:c7:5d:00:ab:
        0c:06:e2:29:a3:22:3f:2a:47:40:66:39:e2:c2:34:54:53:f5:
        9d:04:90:e1:dc:94:2e:10:d8:9e:e8:ea:2a:7f:76:df:21:ac:
        4f:2e:93:af:63:87:db:8f:53:86:dc:ca:9f:f8:d7:96:32:16:
        6e:ae:17:ee:ef:db:1b:ee:00:78:fd:45:40:3f:2b:08:09:e7:
        d5:77:3e:56:84:8c:71:b3:f0:bb:19:36:3f:cd:53:74:b8:35:
        b6:e5:7b:19:62:07:d4:63:75:ca:86:29:2e:b8:52:5c:a8:32:
        4a:60:93:6d:f7:48:94:fa:8a:dd:dc:6a:7f:0c:0f:87:6a:e7:
        3e:e5:9e:5a:5b:88:d1:53:cc:9e:4d:dd:76:7b:78:be:8b:06:
        91:ac:91:a3:7f:4f:b9:45:de:d0:d3:23:d5:20:75:04:77:6e:
        fb:ec:4d:00:2c:f9:23:35:f9:d8:67:df:3c:56:5e:da:43:16:
        de:e0:7e:9f:ba:cc:1b:92:6d:6f:55:fd:93:13:05:70:3e:0e:
        4b:58:18:7e:99:2f:21:0b:e5:3a:c6:48:83:47:c3:3d:41:ae:
        39:12:79:60:f5:75:1f:68:56:49:c4:d5:7c:b4:38:1a:c4:06:
        9b:6d:8c:06
-----BEGIN CERTIFICATE-----
MIIDFzCCAf+gAwIBAgIBAjANBgkqhkiG9w0BAQUFADASMRAwDgYDVQQDEwd4Q0FU
IENBMB4XDTEyMDYyMTE3MTY0MVoXDTMyMDYxNjE3MTY0MVowDzENMAsGA1UEAxME
cm9vdDCCASIwDQYJKoZIhvcNAQEBBQADggEPADCCAQoCggEBANr7AY87QbPs6Fw/
U0LG+1JgwfQV+BJKmJMpXc3Mvff4QkMUMv+KuZy5v4imqx8HaD8l9D6wkqDMKT7l
GLU1/peKhnnvP2u0q5gn6ZnMvqK9fAYtm8fAVzSvij6fYQ26Aqu8Ba9AX3hcy/KM
fRvSEmNs0y+PcAuACU4YbfvVX6oLc6/FgaHnau+eq/WYxf0aIq+HbWynAXWxRViE
7WgSrG6KB2UFnxdRtbAiKZCcpodTXaSNGzCkMogPK+oDo5ZoBF0ntwPNs/u53Tzt
xqzn5EBm50HvHUbeSAFNhmK2h2PckUfos1RHWzSN0FEB3agS4sPOKgxLP5XDb7n3
J0lup4ECAwEAAaN7MHkwCQYDVR0TBAIwADAsBglghkgBhvhCAQ0EHxYdT3BlblNT
TCBHZW5lcmF0ZWQgQ2VydGlmaWNhdGUwHQYDVR0OBBYEFIDD/SlpgtBvwUHbz3YY
TkObFztnMB8GA1UdIwQYMBaAFGWk35dzsMkhHBZI1S5ihH06XWSZMA0GCSqGSIb3
DQEBBQUAA4IBAQABIrXazM3MDo4jozwxrsddAKsMBuIpoyI/KkdAZjniwjRUU/Wd
BJDh3JQuENie6Ooqf3bfIaxPLpOvY4fbj1OG3Mqf+NeWMhZurhfu79sb7gB4/UVA
PysICefVdz5WhIxxs/C7GTY/zVN0uDW25XsZYgfUY3XKhikuuFJcqDJKYJNt90iU
+ord3Gp/DA+Hauc+5Z5aW4jRU8yeTd12e3i+iwaRrJGjf0+5Rd7Q0yPVIHUEd277
7E0ALPkjNfnYZ988Vl7aQxbe4H6fuswbkm1vVf2TEwVwPg5LWBh+mS8hC+U6xkiD
R8M9Qa45Enlg9XUfaFZJxNV8tDgaxAabbYwG
-----END CERTIFICATE-----


